target datalayout = "e-m:e-p270:32:32-p271:32:32-p272:64:64-i64:64-i128:128-f80:128-n8:16:32:64-S128"
target triple = "x86_64-pc-linux-gnu"

%struct.PlanState = type { i32, ptr, ptr, ptr, ptr, ptr, ptr, ptr, ptr, ptr, ptr, ptr, ptr, ptr, ptr, ptr, ptr, ptr, i8, ptr, ptr, ptr, ptr, ptr, i8, i8, i8, i8, i8, i8, i8, i8 }
%struct.SharedExecutorInstrumentation = type { i32, i32, i32, i32, [0 x i32] }
%struct.Instrumentation = type { i8, i8, i8, i8, i8, %struct.instr_time, %struct.instr_time, double, double, %struct.BufferUsage, %struct.WalUsage, double, double, double, double, double, double, double, %struct.BufferUsage, %struct.WalUsage }
%struct.instr_time = type { i64 }
%struct.BufferUsage = type { i64, i64, i64, i64, i64, i64, i64, i64, i64, i64, %struct.instr_time, %struct.instr_time, %struct.instr_time, %struct.instr_time, %struct.instr_time, %struct.instr_time }
%struct.WalUsage = type { i64, i64, i64, i64 }
%struct.Plan = type { i32, i32, double, double, double, i32, i8, i8, i8, i32, ptr, ptr, ptr, ptr, ptr, ptr, ptr }

@.str.3 = private unnamed_addr constant [15 x i8] c"execParallel.c\00", align 1
@ParallelWorkerNumber = external global i32, align 4
@.str.4 = private unnamed_addr constant [23 x i8] c"plan node %d not found\00", align 1
@__func__.ExecParallelReportInstrumentation = private unnamed_addr constant [34 x i8] c"ExecParallelReportInstrumentation\00", align 1

; Function Attrs: nounwind uwtable
define internal zeroext i1 @ExecParallelReportInstrumentation(ptr noundef %0, ptr noundef %1) #0 {
  %3 = alloca ptr, align 8
  %4 = alloca ptr, align 8
  %5 = alloca i32, align 4
  %6 = alloca i32, align 4
  %7 = alloca ptr, align 8
  %8 = alloca i32, align 4
  store ptr %0, ptr %3, align 8
  store ptr %1, ptr %4, align 8
  call void @llvm.lifetime.start.p0(i64 4, ptr %5) #8
  call void @llvm.lifetime.start.p0(i64 4, ptr %6) #8
  %9 = load ptr, ptr %3, align 8
  %10 = getelementptr inbounds nuw %struct.PlanState, ptr %9, i32 0, i32 1
  %11 = load ptr, ptr %10, align 8
  %12 = getelementptr inbounds nuw %struct.Plan, ptr %11, i32 0, i32 9
  %13 = load i32, ptr %12, align 8
  store i32 %13, ptr %6, align 4
  call void @llvm.lifetime.start.p0(i64 8, ptr %7) #8
  %14 = load ptr, ptr %3, align 8
  %15 = getelementptr inbounds nuw %struct.PlanState, ptr %14, i32 0, i32 5
  %16 = load ptr, ptr %15, align 8
  call void @InstrEndLoop(ptr noundef %16)
  store i32 0, ptr %5, align 4
  br label %17

17:                                               ; preds = %34, %2
  %18 = load i32, ptr %5, align 4
  %19 = load ptr, ptr %4, align 8
  %20 = getelementptr inbounds nuw %struct.SharedExecutorInstrumentation, ptr %19, i32 0, i32 3
  %21 = load i32, ptr %20, align 4
  %22 = icmp slt i32 %18, %21
  br i1 %22, label %23, label %37

23:                                               ; preds = %17
  %24 = load ptr, ptr %4, align 8
  %25 = getelementptr inbounds nuw %struct.SharedExecutorInstrumentation, ptr %24, i32 0, i32 4
  %26 = load i32, ptr %5, align 4
  %27 = sext i32 %26 to i64
  %28 = getelementptr inbounds [0 x i32], ptr %25, i64 0, i64 %27
  %29 = load i32, ptr %28, align 4
  %30 = load i32, ptr %6, align 4
  %31 = icmp eq i32 %29, %30
  br i1 %31, label %32, label %33

32:                                               ; preds = %23
  br label %37

33:                                               ; preds = %23
  br label %34

34:                                               ; preds = %33
  %35 = load i32, ptr %5, align 4
  %36 = add i32 %35, 1
  store i32 %36, ptr %5, align 4
  br label %17, !llvm.loop !20

37:                                               ; preds = %32, %17
  %38 = load i32, ptr %5, align 4
  %39 = load ptr, ptr %4, align 8
  %40 = getelementptr inbounds nuw %struct.SharedExecutorInstrumentation, ptr %39, i32 0, i32 3
  %41 = load i32, ptr %40, align 4
  %42 = icmp sge i32 %38, %41
  br i1 %42, label %43, label %55

43:                                               ; preds = %37
  br label %44

44:                                               ; preds = %43
  br i1 true, label %45, label %47

45:                                               ; preds = %44
  %46 = call zeroext i1 @errstart_cold(i32 noundef 21, ptr noundef null) #10
  br i1 %46, label %49, label %52

47:                                               ; preds = %44
  %48 = call zeroext i1 @errstart(i32 noundef 21, ptr noundef null)
  br i1 %48, label %49, label %52

49:                                               ; preds = %47, %45
  %50 = load i32, ptr %6, align 4
  %51 = call i32 (ptr, ...) @errmsg_internal(ptr noundef @.str.4, i32 noundef %50)
  call void @errfinish(ptr noundef @.str.3, i32 noundef 1292, ptr noundef @__func__.ExecParallelReportInstrumentation)
  br label %52

52:                                               ; preds = %49, %47, %45
  unreachable

53:                                               ; No predecessors!
  br label %54

54:                                               ; preds = %53
  br label %55

55:                                               ; preds = %54, %37
  br label %56

56:                                               ; preds = %55
  br label %57

57:                                               ; preds = %56
  br label %58

58:                                               ; preds = %57
  store i32 1, ptr %8, align 4
  %59 = load ptr, ptr %4, align 8
  %60 = load ptr, ptr %4, align 8
  %61 = getelementptr inbounds nuw %struct.SharedExecutorInstrumentation, ptr %60, i32 0, i32 1
  %62 = load i32, ptr %61, align 4
  %63 = sext i32 %62 to i64
  %64 = getelementptr inbounds i8, ptr %59, i64 %63
  store ptr %64, ptr %7, align 8
  %65 = load i32, ptr %5, align 4
  %66 = load ptr, ptr %4, align 8
  %67 = getelementptr inbounds nuw %struct.SharedExecutorInstrumentation, ptr %66, i32 0, i32 2
  %68 = load i32, ptr %67, align 4
  %69 = mul i32 %65, %68
  %70 = load ptr, ptr %7, align 8
  %71 = sext i32 %69 to i64
  %72 = getelementptr inbounds %struct.Instrumentation, ptr %70, i64 %71
  store ptr %72, ptr %7, align 8
  %73 = load ptr, ptr %7, align 8
  %74 = load i32, ptr @ParallelWorkerNumber, align 4
  %75 = sext i32 %74 to i64
  %76 = getelementptr inbounds %struct.Instrumentation, ptr %73, i64 %75
  %77 = load ptr, ptr %3, align 8
  %78 = getelementptr inbounds nuw %struct.PlanState, ptr %77, i32 0, i32 5
  %79 = load ptr, ptr %78, align 8
  call void @InstrAggNode(ptr noundef %76, ptr noundef %79)
  %80 = load ptr, ptr %3, align 8
  %81 = load ptr, ptr %4, align 8
  %82 = call zeroext i1 @planstate_tree_walker_impl(ptr noundef %80, ptr noundef @ExecParallelReportInstrumentation, ptr noundef %81)
  call void @llvm.lifetime.end.p0(i64 8, ptr %7) #8
  call void @llvm.lifetime.end.p0(i64 4, ptr %6) #8
  call void @llvm.lifetime.end.p0(i64 4, ptr %5) #8
  ret i1 %82
}