; Function Attrs: nounwind uwtable
define internal zeroext i1 @ExecParallelReportInstrumentation(ptr noundef %0, ptr noundef %1) #0 {
  %3 = getelementptr inbounds nuw i8, ptr %0, i64 8
  %4 = load ptr, ptr %3, align 8
  %5 = getelementptr inbounds nuw i8, ptr %4, i64 40
  %6 = load i32, ptr %5, align 8
  %7 = getelementptr inbounds nuw i8, ptr %0, i64 40
  %8 = load ptr, ptr %7, align 8
  tail call void @InstrEndLoop(ptr noundef %8) #9
  %9 = getelementptr inbounds nuw i8, ptr %1, i64 12
  %10 = load i32, ptr %9, align 4
  %11 = icmp sgt i32 %10, 0
  br i1 %11, label %.lr.ph, label %._crit_edge

.lr.ph:                                           ; preds = %2
  %12 = getelementptr inbounds nuw i8, ptr %1, i64 16
  %wide.trip.count = zext nneg i32 %10 to i64
  br label %13

13:                                               ; preds = %.lr.ph, %17
  %indvars.iv = phi i64 [ 0, %.lr.ph ], [ %indvars.iv.next, %17 ]
  %14 = getelementptr inbounds nuw [0 x i32], ptr %12, i64 0, i64 %indvars.iv
  %15 = load i32, ptr %14, align 4
  %16 = icmp eq i32 %15, %6
  br i1 %16, label %20, label %17

17:                                               ; preds = %13
  %indvars.iv.next = add nuw nsw i64 %indvars.iv, 1
  %exitcond.not = icmp eq i64 %indvars.iv.next, %wide.trip.count
  br i1 %exitcond.not, label %._crit_edge, label %13, !llvm.loop !19

._crit_edge:                                      ; preds = %17, %2
  %18 = tail call zeroext i1 @errstart_cold(i32 noundef 21, ptr noundef null) #11
  tail call void @llvm.assume(i1 %18)
  %19 = tail call i32 (ptr, ...) @errmsg_internal(ptr noundef nonnull @.str.4, i32 noundef %6) #9
  tail call void @errfinish(ptr noundef nonnull @.str.3, i32 noundef 1292, ptr noundef nonnull @__func__.ExecParallelReportInstrumentation) #9
  unreachable

20:                                               ; preds = %13
  %21 = trunc nuw nsw i64 %indvars.iv to i32
  %22 = getelementptr inbounds nuw i8, ptr %1, i64 4
  %23 = load i32, ptr %22, align 4
  %24 = sext i32 %23 to i64
  %25 = getelementptr inbounds i8, ptr %1, i64 %24
  %26 = getelementptr inbounds nuw i8, ptr %1, i64 8
  %27 = load i32, ptr %26, align 4
  %28 = mul i32 %27, %21
  %29 = sext i32 %28 to i64
  %30 = getelementptr inbounds %struct.Instrumentation, ptr %25, i64 %29
  %31 = load i32, ptr @ParallelWorkerNumber, align 4
  %32 = sext i32 %31 to i64
  %33 = getelementptr inbounds %struct.Instrumentation, ptr %30, i64 %32
  %34 = load ptr, ptr %7, align 8
  tail call void @InstrAggNode(ptr noundef %33, ptr noundef %34) #9
  %35 = tail call zeroext i1 @planstate_tree_walker_impl(ptr noundef %0, ptr noundef nonnull @ExecParallelReportInstrumentation, ptr noundef nonnull %1) #9
  ret i1 %35
}